target datalayout = "e-m:e-p270:32:32-p271:32:32-p272:64:64-i64:64-i128:128-f80:128-n8:16:32:64-S128"
target triple = "x86_64-unknown-linux-gnu"

%struct.crypto_ex_data_st = type { ptr }
%struct.ssl_ctx_st = type { ptr, %union.crypto_mutex_st, i16, i16, ptr, ptr, ptr, ptr, ptr, ptr, i64, ptr, ptr, i32, i32, i64, ptr, ptr, ptr, i32, ptr, ptr, ptr, ptr, ptr, ptr, %struct.crypto_ex_data_st, ptr, ptr, ptr, ptr, i32, i32, i32, ptr, ptr, ptr, i32, i32, [32 x i8], ptr, ptr, ptr, ptr, i16, ptr, ptr, [16 x i8], [16 x i8], [16 x i8], ptr, ptr, ptr, ptr, i8, ptr, ptr, ptr, ptr, ptr, ptr, ptr, i32, ptr, i64, ptr, ptr, ptr, i64, ptr, i64, ptr, ptr, i8, ptr, i32 }
%union.crypto_mutex_st = type { double, [48 x i8] }
%struct.cert_st = type { ptr, ptr, ptr, ptr, i32, i32, ptr, ptr, ptr, i64, ptr, i64, ptr, ptr, ptr }

@.str = private unnamed_addr constant [116 x i8] c"generated/home/dtcxzyw/WorkSpace/Projects/compilers/llvm-opt-benchmark/bench/libquic/libquic/boringssl/ssl/s3_lib.c\00", align 1

; Function Attrs: nounwind uwtable
define hidden i32 @SSL_CTX_set_tmp_dh(ptr noundef %ctx, ptr noundef %dh) #0 {
entry:
  %retval = alloca i32, align 4
  %ctx.addr = alloca ptr, align 8
  %dh.addr = alloca ptr, align 8
  store ptr %ctx, ptr %ctx.addr, align 8
  store ptr %dh, ptr %dh.addr, align 8
  %0 = load ptr, ptr %ctx.addr, align 8
  %cert = getelementptr inbounds %struct.ssl_ctx_st, ptr %0, i32 0, i32 34
  %1 = load ptr, ptr %cert, align 8
  %dh_tmp = getelementptr inbounds %struct.cert_st, ptr %1, i32 0, i32 6
  %2 = load ptr, ptr %dh_tmp, align 8
  call void @DH_free(ptr noundef %2)
  %3 = load ptr, ptr %dh.addr, align 8
  %call = call ptr @DHparams_dup(ptr noundef %3)
  %4 = load ptr, ptr %ctx.addr, align 8
  %cert1 = getelementptr inbounds %struct.ssl_ctx_st, ptr %4, i32 0, i32 34
  %5 = load ptr, ptr %cert1, align 8
  %dh_tmp2 = getelementptr inbounds %struct.cert_st, ptr %5, i32 0, i32 6
  store ptr %call, ptr %dh_tmp2, align 8
  %6 = load ptr, ptr %ctx.addr, align 8
  %cert3 = getelementptr inbounds %struct.ssl_ctx_st, ptr %6, i32 0, i32 34
  %7 = load ptr, ptr %cert3, align 8
  %dh_tmp4 = getelementptr inbounds %struct.cert_st, ptr %7, i32 0, i32 6
  %8 = load ptr, ptr %dh_tmp4, align 8
  %cmp = icmp eq ptr %8, null
  br i1 %cmp, label %if.then, label %if.end

if.then:                                          ; preds = %entry
  call void @ERR_put_error(i32 noundef 16, i32 noundef 0, i32 noundef 5, ptr noundef @.str, i32 noundef 269)
  store i32 0, ptr %retval, align 4
  br label %return

if.end:                                           ; preds = %entry
  store i32 1, ptr %retval, align 4
  br label %return

return:                                           ; preds = %if.end, %if.then
  %9 = load i32, ptr %retval, align 4
  ret i32 %9
}