; Function Attrs: nounwind uwtable
define hidden range(i32 0, 2) i32 @SSL_CTX_set_tmp_dh(ptr noundef readonly captures(none) %ctx, ptr noundef %dh) local_unnamed_addr #1 {
entry:
  %cert = getelementptr inbounds nuw i8, ptr %ctx, i64 296
  %0 = load ptr, ptr %cert, align 8
  %dh_tmp = getelementptr inbounds nuw i8, ptr %0, i64 40
  %1 = load ptr, ptr %dh_tmp, align 8
  tail call void @DH_free(ptr noundef %1) #14
  %call = tail call ptr @DHparams_dup(ptr noundef %dh) #14
  %2 = load ptr, ptr %cert, align 8
  %dh_tmp2 = getelementptr inbounds nuw i8, ptr %2, i64 40
  store ptr %call, ptr %dh_tmp2, align 8
  %3 = load ptr, ptr %cert, align 8
  %dh_tmp4 = getelementptr inbounds nuw i8, ptr %3, i64 40
  %4 = load ptr, ptr %dh_tmp4, align 8
  %cmp = icmp eq ptr %4, null
  br i1 %cmp, label %if.then, label %return

if.then:                                          ; preds = %entry
  tail call void @ERR_put_error(i32 noundef 16, i32 noundef 0, i32 noundef 5, ptr noundef nonnull @.str, i32 noundef 269) #14
  br label %return

return:                                           ; preds = %entry, %if.then
  %retval.0 = phi i32 [ 0, %if.then ], [ 1, %entry ]
  ret i32 %retval.0
}